; Function Attrs: mustprogress uwtable
define dso_local void @_ZN3net18ReliableQuicStream26CloseConnectionWithDetailsENS_13QuicErrorCodeERKNSt7__cxx1112basic_stringIcSt11char_traitsIcESaIcEEE(ptr nocapture noundef nonnull readonly align 8 dereferenceable(377) %this, i32 noundef %error, ptr noundef nonnull align 8 dereferenceable(32) %details) unnamed_addr #2 align 2 {
entry:
  %session_.i = getelementptr inbounds i8, ptr %this, i64 224
  %0 = load ptr, ptr %session_.i, align 8
  %connection_.i = getelementptr inbounds i8, ptr %0, i64 56
  %1 = load ptr, ptr %connection_.i, align 8
  %vtable = load ptr, ptr %1, align 8
  %vfn = getelementptr inbounds i8, ptr %vtable, i64 256
  %2 = load ptr, ptr %vfn, align 8
  tail call void %2(ptr noundef nonnull align 8 dereferenceable(3372) %1, i32 noundef %error, ptr noundef nonnull align 8 dereferenceable(32) %details, i32 noundef 1)
  ret void
}